target datalayout = "e-m:e-p270:32:32-p271:32:32-p272:64:64-i64:64-i128:128-f80:128-n8:16:32:64-S128"
target triple = "x86_64-pc-linux-gnu"

%struct._lv_file_explorer_t = type { %struct._lv_obj_t, ptr, ptr, ptr, ptr, ptr, ptr, ptr, ptr, ptr, ptr, ptr, ptr, ptr, ptr, ptr, [128 x i8], i32 }
%struct._lv_obj_t = type { ptr, ptr, ptr, ptr, ptr, %struct.lv_area_t, i32, i16, i16 }
%struct.lv_area_t = type { i32, i32, i32, i32 }
%struct.lv_fs_dir_t = type { ptr, ptr }
%struct.lv_file_explorer_file_table_entry_data_t = type { i32 }

@.str.10 = private unnamed_addr constant [5 x i8] c"Back\00", align 1
@.str.11 = private unnamed_addr constant [5 x i8] c"%s%s\00", align 1

; Function Attrs: nounwind uwtable
define internal void @strip_ext(ptr noundef %0) #0 {
  %2 = alloca ptr, align 8
  %3 = alloca ptr, align 8
  store ptr %0, ptr %2, align 8, !tbaa !36
  call void @llvm.lifetime.start.p0(i64 8, ptr %3) #5
  %4 = load ptr, ptr %2, align 8, !tbaa !36
  %5 = load ptr, ptr %2, align 8, !tbaa !36
  %6 = call i64 @lv_strlen(ptr noundef %5)
  %7 = getelementptr inbounds nuw i8, ptr %4, i64 %6
  store ptr %7, ptr %3, align 8, !tbaa !36
  br label %8

8:                                                ; preds = %19, %1
  %9 = load ptr, ptr %3, align 8, !tbaa !36
  %10 = load ptr, ptr %2, align 8, !tbaa !36
  %11 = icmp uge ptr %9, %10
  br i1 %11, label %12, label %17

12:                                               ; preds = %8
  %13 = load ptr, ptr %3, align 8, !tbaa !36
  %14 = load i8, ptr %13, align 1, !tbaa !44
  %15 = sext i8 %14 to i32
  %16 = icmp ne i32 %15, 47
  br label %17

17:                                               ; preds = %12, %8
  %18 = phi i1 [ false, %8 ], [ %16, %12 ]
  br i1 %18, label %19, label %22

19:                                               ; preds = %17
  %20 = load ptr, ptr %3, align 8, !tbaa !36
  %21 = getelementptr inbounds i8, ptr %20, i32 -1
  store ptr %21, ptr %3, align 8, !tbaa !36
  br label %8, !llvm.loop !52

22:                                               ; preds = %17
  %23 = load ptr, ptr %3, align 8, !tbaa !36
  %24 = load ptr, ptr %2, align 8, !tbaa !36
  %25 = icmp ugt ptr %23, %24
  br i1 %25, label %26, label %28

26:                                               ; preds = %22
  %27 = load ptr, ptr %3, align 8, !tbaa !36
  store i8 0, ptr %27, align 1, !tbaa !44
  br label %36

28:                                               ; preds = %22
  %29 = load ptr, ptr %3, align 8, !tbaa !36
  %30 = load ptr, ptr %2, align 8, !tbaa !36
  %31 = icmp eq ptr %29, %30
  br i1 %31, label %32, label %35

32:                                               ; preds = %28
  %33 = load ptr, ptr %3, align 8, !tbaa !36
  %34 = getelementptr inbounds i8, ptr %33, i64 1
  store i8 0, ptr %34, align 1, !tbaa !44
  br label %35

35:                                               ; preds = %32, %28
  br label %36

36:                                               ; preds = %35, %26
  call void @llvm.lifetime.end.p0(i64 8, ptr %3) #5
  ret void
}

; Function Attrs: inlinehint nounwind uwtable
define internal void @lv_memzero(ptr noundef %0, i64 noundef %1) #3 {
  %3 = alloca ptr, align 8
  %4 = alloca i64, align 8
  store ptr %0, ptr %3, align 8, !tbaa !41
  store i64 %1, ptr %4, align 8, !tbaa !45
  %5 = load ptr, ptr %3, align 8, !tbaa !41
  %6 = load i64, ptr %4, align 8, !tbaa !45
  call void @lv_memset(ptr noundef %5, i8 noundef zeroext 0, i64 noundef %6)
  ret void
}

; Function Attrs: nounwind uwtable
define internal void @browser_file_event_handler(ptr noundef %0) #0 {
  %2 = alloca ptr, align 8
  %3 = alloca i32, align 4
  %4 = alloca ptr, align 8
  %5 = alloca ptr, align 8
  %6 = alloca i32, align 4
  %7 = alloca i32, align 4
  %8 = alloca [128 x i8], align 16
  %9 = alloca ptr, align 8
  %10 = alloca ptr, align 8
  %11 = alloca i32, align 4
  %12 = alloca i32, align 4
  %13 = alloca i8, align 1
  %14 = alloca i8, align 1
  %15 = alloca i64, align 8
  %16 = alloca i32, align 4
  %17 = alloca %struct.lv_fs_dir_t, align 8
  %18 = alloca i32, align 4
  store ptr %0, ptr %2, align 8, !tbaa !47
  call void @llvm.lifetime.start.p0(i64 4, ptr %3) #5
  %19 = load ptr, ptr %2, align 8, !tbaa !47
  %20 = call i32 @lv_event_get_code(ptr noundef %19)
  store i32 %20, ptr %3, align 4, !tbaa !35
  call void @llvm.lifetime.start.p0(i64 8, ptr %4) #5
  %21 = load ptr, ptr %2, align 8, !tbaa !47
  %22 = call ptr @lv_event_get_user_data(ptr noundef %21)
  store ptr %22, ptr %4, align 8, !tbaa !8
  call void @llvm.lifetime.start.p0(i64 8, ptr %5) #5
  %23 = load ptr, ptr %4, align 8, !tbaa !8
  store ptr %23, ptr %5, align 8, !tbaa !10
  call void @llvm.lifetime.start.p0(i64 4, ptr %6) #5
  %24 = call ptr @lv_indev_active()
  %25 = call i32 @lv_indev_get_type(ptr noundef %24)
  store i32 %25, ptr %6, align 4, !tbaa !35
  call void @llvm.lifetime.start.p0(i64 4, ptr %7) #5
  %26 = load i32, ptr %6, align 4, !tbaa !35
  %27 = icmp eq i32 %26, 1
  br i1 %27, label %31, label %28

28:                                               ; preds = %1
  %29 = load i32, ptr %6, align 4, !tbaa !35
  %30 = icmp eq i32 %29, 3
  br label %31

31:                                               ; preds = %28, %1
  %32 = phi i1 [ true, %1 ], [ %30, %28 ]
  %33 = select i1 %32, i32 35, i32 10
  store i32 %33, ptr %7, align 4, !tbaa !35
  %34 = load i32, ptr %3, align 4, !tbaa !35
  %35 = load i32, ptr %7, align 4, !tbaa !35
  %36 = icmp eq i32 %34, %35
  br i1 %36, label %37, label %149

37:                                               ; preds = %31
  call void @llvm.lifetime.start.p0(i64 128, ptr %8) #5
  call void @llvm.lifetime.start.p0(i64 8, ptr %9) #5
  store ptr null, ptr %9, align 8, !tbaa !36
  call void @llvm.lifetime.start.p0(i64 8, ptr %10) #5
  store ptr null, ptr %10, align 8, !tbaa !41
  call void @llvm.lifetime.start.p0(i64 4, ptr %11) #5
  call void @llvm.lifetime.start.p0(i64 4, ptr %12) #5
  call void @llvm.lifetime.start.p0(i64 1, ptr %13) #5
  store i8 0, ptr %13, align 1, !tbaa !44
  call void @llvm.lifetime.start.p0(i64 1, ptr %14) #5
  store i8 0, ptr %14, align 1, !tbaa !44
  %38 = getelementptr inbounds [128 x i8], ptr %8, i64 0, i64 0
  call void @lv_memzero(ptr noundef %38, i64 noundef 128)
  %39 = load ptr, ptr %5, align 8, !tbaa !10
  %40 = getelementptr inbounds nuw %struct._lv_file_explorer_t, ptr %39, i32 0, i32 4
  %41 = load ptr, ptr %40, align 8, !tbaa !34
  call void @lv_table_get_selected_cell(ptr noundef %41, ptr noundef %11, ptr noundef %12)
  %42 = load ptr, ptr %5, align 8, !tbaa !10
  %43 = getelementptr inbounds nuw %struct._lv_file_explorer_t, ptr %42, i32 0, i32 4
  %44 = load ptr, ptr %43, align 8, !tbaa !34
  %45 = load i32, ptr %11, align 4, !tbaa !35
  %46 = load i32, ptr %12, align 4, !tbaa !35
  %47 = call ptr @lv_table_get_cell_value(ptr noundef %44, i32 noundef %45, i32 noundef %46)
  store ptr %47, ptr %9, align 8, !tbaa !36
  %48 = load ptr, ptr %5, align 8, !tbaa !10
  %49 = getelementptr inbounds nuw %struct._lv_file_explorer_t, ptr %48, i32 0, i32 4
  %50 = load ptr, ptr %49, align 8, !tbaa !34
  %51 = load i32, ptr %11, align 4, !tbaa !35
  %52 = trunc i32 %51 to i16
  %53 = load i32, ptr %12, align 4, !tbaa !35
  %54 = trunc i32 %53 to i16
  %55 = call ptr @lv_table_get_cell_user_data(ptr noundef %50, i16 noundef zeroext %52, i16 noundef zeroext %54)
  store ptr %55, ptr %10, align 8, !tbaa !41
  %56 = load ptr, ptr %9, align 8, !tbaa !36
  %57 = getelementptr inbounds i8, ptr %56, i64 5
  store ptr %57, ptr %9, align 8, !tbaa !36
  %58 = load ptr, ptr %9, align 8, !tbaa !36
  %59 = call i32 @lv_strcmp(ptr noundef %58, ptr noundef @.str.10)
  %60 = icmp eq i32 %59, 0
  %61 = zext i1 %60 to i32
  %62 = trunc i32 %61 to i8
  store i8 %62, ptr %13, align 1, !tbaa !44
  %63 = load i8, ptr %13, align 1, !tbaa !44
  %64 = icmp ne i8 %63, 0
  %65 = xor i1 %64, true
  %66 = zext i1 %65 to i32
  %67 = trunc i32 %66 to i8
  store i8 %67, ptr %14, align 1, !tbaa !44
  %68 = load i8, ptr %13, align 1, !tbaa !44
  %69 = zext i8 %68 to i32
  %70 = icmp ne i32 %69, 0
  br i1 %70, label %71, label %99

71:                                               ; preds = %37
  %72 = load ptr, ptr %5, align 8, !tbaa !10
  %73 = getelementptr inbounds nuw %struct._lv_file_explorer_t, ptr %72, i32 0, i32 16
  %74 = getelementptr inbounds [128 x i8], ptr %73, i64 0, i64 0
  %75 = call i64 @lv_strlen(ptr noundef %74)
  %76 = icmp ugt i64 %75, 3
  br i1 %76, label %77, label %99

77:                                               ; preds = %71
  %78 = getelementptr inbounds [128 x i8], ptr %8, i64 0, i64 0
  %79 = load ptr, ptr %5, align 8, !tbaa !10
  %80 = getelementptr inbounds nuw %struct._lv_file_explorer_t, ptr %79, i32 0, i32 16
  %81 = getelementptr inbounds [128 x i8], ptr %80, i64 0, i64 0
  %82 = call i64 @lv_strlcpy(ptr noundef %78, ptr noundef %81, i64 noundef 128)
  %83 = getelementptr inbounds [128 x i8], ptr %8, i64 0, i64 0
  call void @strip_ext(ptr noundef %83)
  %84 = getelementptr inbounds [128 x i8], ptr %8, i64 0, i64 0
  call void @strip_ext(ptr noundef %84)
  call void @llvm.lifetime.start.p0(i64 8, ptr %15) #5
  %85 = getelementptr inbounds [128 x i8], ptr %8, i64 0, i64 0
  %86 = call i64 @lv_strlen(ptr noundef %85)
  store i64 %86, ptr %15, align 8, !tbaa !45
  %87 = getelementptr inbounds [128 x i8], ptr %8, i64 0, i64 0
  %88 = load i64, ptr %15, align 8, !tbaa !45
  %89 = getelementptr inbounds nuw i8, ptr %87, i64 %88
  store i8 47, ptr %89, align 1, !tbaa !44
  %90 = load i64, ptr %15, align 8, !tbaa !45
  %91 = add i64 %90, 1
  %92 = icmp ult i64 %91, 128
  br i1 %92, label %93, label %98

93:                                               ; preds = %77
  %94 = getelementptr inbounds [128 x i8], ptr %8, i64 0, i64 0
  %95 = load i64, ptr %15, align 8, !tbaa !45
  %96 = getelementptr inbounds nuw i8, ptr %94, i64 %95
  %97 = getelementptr inbounds i8, ptr %96, i64 1
  store i8 0, ptr %97, align 1, !tbaa !44
  br label %98

98:                                               ; preds = %93, %77
  call void @llvm.lifetime.end.p0(i64 8, ptr %15) #5
  br label %116

99:                                               ; preds = %71, %37
  %100 = load i8, ptr %14, align 1, !tbaa !44
  %101 = icmp ne i8 %100, 0
  br i1 %101, label %102, label %109

102:                                              ; preds = %99
  %103 = getelementptr inbounds [128 x i8], ptr %8, i64 0, i64 0
  %104 = load ptr, ptr %5, align 8, !tbaa !10
  %105 = getelementptr inbounds nuw %struct._lv_file_explorer_t, ptr %104, i32 0, i32 16
  %106 = getelementptr inbounds [128 x i8], ptr %105, i64 0, i64 0
  %107 = load ptr, ptr %9, align 8, !tbaa !36
  %108 = call i32 (ptr, i64, ptr, ...) @lv_snprintf(ptr noundef %103, i64 noundef 128, ptr noundef @.str.11, ptr noundef %106, ptr noundef %107)
  br label %115

109:                                              ; preds = %99
  %110 = load i8, ptr %13, align 1, !tbaa !44
  %111 = icmp ne i8 %110, 0
  br i1 %111, label %112, label %113

112:                                              ; preds = %109
  store i32 1, ptr %16, align 4
  br label %146

113:                                              ; preds = %109
  br label %114

114:                                              ; preds = %113
  br label %115

115:                                              ; preds = %114, %102
  br label %116

116:                                              ; preds = %115, %98
  %117 = load ptr, ptr %10, align 8, !tbaa !41
  %118 = getelementptr inbounds nuw %struct.lv_file_explorer_file_table_entry_data_t, ptr %117, i32 0, i32 0
  %119 = load i32, ptr %118, align 4, !tbaa !42
  %120 = icmp eq i32 %119, 0
  br i1 %120, label %121, label %135

121:                                              ; preds = %116
  call void @llvm.lifetime.start.p0(i64 16, ptr %17) #5
  call void @llvm.lifetime.start.p0(i64 4, ptr %18) #5
  %122 = getelementptr inbounds [128 x i8], ptr %8, i64 0, i64 0
  %123 = call i32 @lv_fs_dir_open(ptr noundef %17, ptr noundef %122)
  store i32 %123, ptr %18, align 4, !tbaa !35
  %124 = load i32, ptr %18, align 4, !tbaa !35
  %125 = icmp eq i32 %124, 0
  br i1 %125, label %126, label %130

126:                                              ; preds = %121
  %127 = call i32 @lv_fs_dir_close(ptr noundef %17)
  %128 = load ptr, ptr %4, align 8, !tbaa !8
  %129 = getelementptr inbounds [128 x i8], ptr %8, i64 0, i64 0
  call void @show_dir(ptr noundef %128, ptr noundef %129)
  br label %134

130:                                              ; preds = %121
  br label %131

131:                                              ; preds = %130
  br label %132

132:                                              ; preds = %131
  br label %133

133:                                              ; preds = %132
  br label %134

134:                                              ; preds = %133, %126
  call void @llvm.lifetime.end.p0(i64 4, ptr %18) #5
  call void @llvm.lifetime.end.p0(i64 16, ptr %17) #5
  br label %145

135:                                              ; preds = %116
  %136 = load i8, ptr %14, align 1, !tbaa !44
  %137 = icmp ne i8 %136, 0
  br i1 %137, label %138, label %144

138:                                              ; preds = %135
  %139 = load ptr, ptr %9, align 8, !tbaa !36
  %140 = load ptr, ptr %5, align 8, !tbaa !10
  %141 = getelementptr inbounds nuw %struct._lv_file_explorer_t, ptr %140, i32 0, i32 15
  store ptr %139, ptr %141, align 8, !tbaa !40
  %142 = load ptr, ptr %4, align 8, !tbaa !8
  %143 = call i32 @lv_obj_send_event(ptr noundef %142, i32 noundef 35, ptr noundef null)
  br label %144

144:                                              ; preds = %138, %135
  br label %145

145:                                              ; preds = %144, %134
  store i32 0, ptr %16, align 4
  br label %146

146:                                              ; preds = %145, %112
  call void @llvm.lifetime.end.p0(i64 1, ptr %14) #5
  call void @llvm.lifetime.end.p0(i64 1, ptr %13) #5
  call void @llvm.lifetime.end.p0(i64 4, ptr %12) #5
  call void @llvm.lifetime.end.p0(i64 4, ptr %11) #5
  call void @llvm.lifetime.end.p0(i64 8, ptr %10) #5
  call void @llvm.lifetime.end.p0(i64 8, ptr %9) #5
  call void @llvm.lifetime.end.p0(i64 128, ptr %8) #5
  %147 = load i32, ptr %16, align 4
  switch i32 %147, label %162 [
    i32 0, label %148
  ]

148:                                              ; preds = %146
  br label %161

149:                                              ; preds = %31
  %150 = load i32, ptr %3, align 4, !tbaa !35
  %151 = icmp eq i32 %150, 49
  br i1 %151, label %152, label %160

152:                                              ; preds = %149
  %153 = load ptr, ptr %5, align 8, !tbaa !10
  %154 = getelementptr inbounds nuw %struct._lv_file_explorer_t, ptr %153, i32 0, i32 4
  %155 = load ptr, ptr %154, align 8, !tbaa !34
  %156 = load ptr, ptr %5, align 8, !tbaa !10
  %157 = getelementptr inbounds nuw %struct._lv_file_explorer_t, ptr %156, i32 0, i32 4
  %158 = load ptr, ptr %157, align 8, !tbaa !34
  %159 = call i32 @lv_obj_get_width(ptr noundef %158)
  call void @lv_table_set_column_width(ptr noundef %155, i32 noundef 0, i32 noundef %159)
  br label %160

160:                                              ; preds = %152, %149
  br label %161

161:                                              ; preds = %160, %148
  store i32 0, ptr %16, align 4
  br label %162

162:                                              ; preds = %161, %146
  call void @llvm.lifetime.end.p0(i64 4, ptr %7) #5
  call void @llvm.lifetime.end.p0(i64 4, ptr %6) #5
  call void @llvm.lifetime.end.p0(i64 8, ptr %5) #5
  call void @llvm.lifetime.end.p0(i64 8, ptr %4) #5
  call void @llvm.lifetime.end.p0(i64 4, ptr %3) #5
  %163 = load i32, ptr %16, align 4
  switch i32 %163, label %165 [
    i32 0, label %164
    i32 1, label %164
  ]

164:                                              ; preds = %162, %162
  ret void

165:                                              ; preds = %162
  unreachable
}