; Function Attrs: nounwind uwtable
define internal void @browser_file_event_handler(ptr noundef %0) #0 {
  %2 = alloca [128 x i8], align 16
  %3 = alloca i32, align 4
  %4 = alloca i32, align 4
  %5 = alloca %struct.lv_fs_dir_t, align 8
  %6 = tail call i32 @lv_event_get_code(ptr noundef %0) #6
  %7 = tail call ptr @lv_event_get_user_data(ptr noundef %0) #6
  %8 = tail call ptr @lv_indev_active() #6
  %9 = tail call i32 @lv_indev_get_type(ptr noundef %8) #6
  %10 = and i32 %9, -3
  %11 = icmp eq i32 %10, 1
  %12 = select i1 %11, i32 35, i32 10
  %13 = icmp eq i32 %6, %12
  br i1 %13, label %14, label %78

14:                                               ; preds = %1
  call void @llvm.lifetime.start.p0(i64 128, ptr nonnull %2) #6
  call void @llvm.lifetime.start.p0(i64 4, ptr nonnull %3) #6
  call void @llvm.lifetime.start.p0(i64 4, ptr nonnull %4) #6
  call void @lv_memset(ptr noundef nonnull %2, i8 noundef zeroext 0, i64 noundef 128) #6
  %15 = getelementptr inbounds nuw i8, ptr %7, i64 88
  %16 = load ptr, ptr %15, align 8, !tbaa !24
  call void @lv_table_get_selected_cell(ptr noundef %16, ptr noundef nonnull %3, ptr noundef nonnull %4) #6
  %17 = load ptr, ptr %15, align 8, !tbaa !24
  %18 = load i32, ptr %3, align 4, !tbaa !34
  %19 = load i32, ptr %4, align 4, !tbaa !34
  %20 = call ptr @lv_table_get_cell_value(ptr noundef %17, i32 noundef %18, i32 noundef %19) #6
  %21 = load ptr, ptr %15, align 8, !tbaa !24
  %22 = load i32, ptr %3, align 4, !tbaa !34
  %23 = trunc i32 %22 to i16
  %24 = load i32, ptr %4, align 4, !tbaa !34
  %25 = trunc i32 %24 to i16
  %26 = call ptr @lv_table_get_cell_user_data(ptr noundef %21, i16 noundef zeroext %23, i16 noundef zeroext %25) #6
  %27 = getelementptr inbounds nuw i8, ptr %20, i64 5
  %28 = call i32 @lv_strcmp(ptr noundef nonnull %27, ptr noundef nonnull @.str.10) #6
  %.not = icmp eq i32 %28, 0
  %29 = getelementptr inbounds nuw i8, ptr %7, i64 184
  br i1 %.not, label %30, label %.thread

30:                                               ; preds = %14
  %31 = call i64 @lv_strlen(ptr noundef nonnull %29) #6
  %32 = icmp ugt i64 %31, 3
  br i1 %32, label %33, label %.critedge35

33:                                               ; preds = %30
  %34 = call i64 @lv_strlcpy(ptr noundef nonnull %2, ptr noundef nonnull %29, i64 noundef 128) #6
  %35 = call i64 @lv_strlen(ptr noundef nonnull %2) #6
  %36 = getelementptr inbounds nuw i8, ptr %2, i64 %35
  br label %.lr.ph.i

.lr.ph.i:                                         ; preds = %38, %33
  %.015.i = phi ptr [ %39, %38 ], [ %36, %33 ]
  %37 = load i8, ptr %.015.i, align 1, !tbaa !32
  %.not13.i = icmp eq i8 %37, 47
  br i1 %.not13.i, label %.critedge.i, label %38

38:                                               ; preds = %.lr.ph.i
  %39 = getelementptr inbounds i8, ptr %.015.i, i64 -1
  %.not.i = icmp ult ptr %39, %2
  br i1 %.not.i, label %.critedge.i, label %.lr.ph.i, !llvm.loop !35

.critedge.i:                                      ; preds = %38, %.lr.ph.i
  %.0.lcssa.ph.i = phi ptr [ %.015.i, %.lr.ph.i ], [ %39, %38 ]
  %40 = icmp ugt ptr %.0.lcssa.ph.i, %2
  br i1 %40, label %41, label %42

41:                                               ; preds = %.critedge.i
  store i8 0, ptr %.0.lcssa.ph.i, align 1, !tbaa !32
  br label %strip_ext.exit

42:                                               ; preds = %.critedge.i
  %43 = icmp eq ptr %.0.lcssa.ph.i, %2
  br i1 %43, label %44, label %strip_ext.exit

44:                                               ; preds = %42
  %45 = getelementptr inbounds nuw i8, ptr %2, i64 1
  store i8 0, ptr %45, align 1, !tbaa !32
  br label %strip_ext.exit

strip_ext.exit:                                   ; preds = %41, %42, %44
  %46 = call i64 @lv_strlen(ptr noundef nonnull %2) #6
  %47 = getelementptr inbounds nuw i8, ptr %2, i64 %46
  br label %.lr.ph.i36

.lr.ph.i36:                                       ; preds = %49, %strip_ext.exit
  %.015.i37 = phi ptr [ %50, %49 ], [ %47, %strip_ext.exit ]
  %48 = load i8, ptr %.015.i37, align 1, !tbaa !32
  %.not13.i38 = icmp eq i8 %48, 47
  br i1 %.not13.i38, label %.critedge.i40, label %49

49:                                               ; preds = %.lr.ph.i36
  %50 = getelementptr inbounds i8, ptr %.015.i37, i64 -1
  %.not.i39 = icmp ult ptr %50, %2
  br i1 %.not.i39, label %.critedge.i40, label %.lr.ph.i36, !llvm.loop !35

.critedge.i40:                                    ; preds = %49, %.lr.ph.i36
  %.0.lcssa.ph.i41 = phi ptr [ %.015.i37, %.lr.ph.i36 ], [ %50, %49 ]
  %51 = icmp ugt ptr %.0.lcssa.ph.i41, %2
  br i1 %51, label %52, label %53

52:                                               ; preds = %.critedge.i40
  store i8 0, ptr %.0.lcssa.ph.i41, align 1, !tbaa !32
  br label %strip_ext.exit42

53:                                               ; preds = %.critedge.i40
  %54 = icmp eq ptr %.0.lcssa.ph.i41, %2
  br i1 %54, label %55, label %strip_ext.exit42

55:                                               ; preds = %53
  %56 = getelementptr inbounds nuw i8, ptr %2, i64 1
  store i8 0, ptr %56, align 1, !tbaa !32
  br label %strip_ext.exit42

strip_ext.exit42:                                 ; preds = %52, %53, %55
  %57 = call i64 @lv_strlen(ptr noundef nonnull %2) #6
  %58 = getelementptr inbounds nuw i8, ptr %2, i64 %57
  store i8 47, ptr %58, align 1, !tbaa !32
  %59 = add i64 %57, 1
  %60 = icmp ult i64 %59, 128
  br i1 %60, label %61, label %63

61:                                               ; preds = %strip_ext.exit42
  %62 = getelementptr inbounds nuw i8, ptr %58, i64 1
  store i8 0, ptr %62, align 1, !tbaa !32
  br label %63

63:                                               ; preds = %strip_ext.exit42, %61
  %64 = load i32, ptr %26, align 4, !tbaa !30
  %65 = icmp eq i32 %64, 0
  br i1 %65, label %69, label %77

.thread:                                          ; preds = %14
  %66 = call i32 (ptr, i64, ptr, ...) @lv_snprintf(ptr noundef nonnull %2, i64 noundef 128, ptr noundef nonnull @.str.11, ptr noundef nonnull %29, ptr noundef nonnull %27) #6
  %67 = load i32, ptr %26, align 4, !tbaa !30
  %68 = icmp eq i32 %67, 0
  br i1 %68, label %69, label %.thread43

69:                                               ; preds = %.thread, %63
  call void @llvm.lifetime.start.p0(i64 16, ptr nonnull %5) #6
  %70 = call i32 @lv_fs_dir_open(ptr noundef nonnull %5, ptr noundef nonnull %2) #6
  %71 = icmp eq i32 %70, 0
  br i1 %71, label %72, label %74

72:                                               ; preds = %69
  %73 = call i32 @lv_fs_dir_close(ptr noundef nonnull %5) #6
  call fastcc void @show_dir(ptr noundef %7, ptr noundef nonnull %2)
  br label %74

74:                                               ; preds = %69, %72
  call void @llvm.lifetime.end.p0(i64 16, ptr nonnull %5) #6
  br label %77

.thread43:                                        ; preds = %.thread
  %75 = getelementptr inbounds nuw i8, ptr %7, i64 176
  store ptr %27, ptr %75, align 8, !tbaa !29
  %76 = call i32 @lv_obj_send_event(ptr noundef nonnull %7, i32 noundef 35, ptr noundef null) #6
  br label %77

77:                                               ; preds = %63, %74, %.thread43
  call void @llvm.lifetime.end.p0(i64 4, ptr nonnull %4) #6
  call void @llvm.lifetime.end.p0(i64 4, ptr nonnull %3) #6
  call void @llvm.lifetime.end.p0(i64 128, ptr nonnull %2) #6
  br label %84

78:                                               ; preds = %1
  %79 = icmp eq i32 %6, 49
  br i1 %79, label %80, label %84

80:                                               ; preds = %78
  %81 = getelementptr inbounds nuw i8, ptr %7, i64 88
  %82 = load ptr, ptr %81, align 8, !tbaa !24
  %83 = tail call i32 @lv_obj_get_width(ptr noundef %82) #6
  tail call void @lv_table_set_column_width(ptr noundef %82, i32 noundef 0, i32 noundef %83) #6
  br label %84

.critedge35:                                      ; preds = %30
  call void @llvm.lifetime.end.p0(i64 4, ptr nonnull %4) #6
  call void @llvm.lifetime.end.p0(i64 4, ptr nonnull %3) #6
  call void @llvm.lifetime.end.p0(i64 128, ptr nonnull %2) #6
  br label %84

84:                                               ; preds = %80, %78, %77, %.critedge35
  ret void
}